; Function Attrs: mustprogress nofree norecurse nosync nounwind memory(argmem: readwrite) uwtable
define hidden void @_ZN2cv12cpu_baseline13accProd_simd_EPKfS2_PfPKhii(ptr noundef readonly captures(none) %0, ptr noundef readonly captures(none) %1, ptr noundef captures(none) %2, ptr noundef readonly %3, i32 noundef %4, i32 noundef %5) local_unnamed_addr #0 {
  %.not.i = icmp eq ptr %3, null
  br i1 %.not.i, label %7, label %17

7:                                                ; preds = %6
  %8 = mul nsw i32 %5, %4
  %9 = icmp sgt i32 %8, 0
  br i1 %9, label %.lr.ph.preheader.i, label %_ZN2cv12cpu_baseline16accProd_general_IffEEvPKT_S4_PT0_PKhiii.exit

.lr.ph.preheader.i:                               ; preds = %7
  %wide.trip.count67.i = zext nneg i32 %8 to i64
  br label %.lr.ph.i

.lr.ph.i:                                         ; preds = %.lr.ph.i, %.lr.ph.preheader.i
  %indvars.iv64.i = phi i64 [ 0, %.lr.ph.preheader.i ], [ %indvars.iv.next65.i, %.lr.ph.i ]
  %10 = getelementptr inbounds nuw float, ptr %0, i64 %indvars.iv64.i
  %11 = load float, ptr %10, align 4, !tbaa !6
  %12 = getelementptr inbounds nuw float, ptr %1, i64 %indvars.iv64.i
  %13 = load float, ptr %12, align 4, !tbaa !6
  %14 = getelementptr inbounds nuw float, ptr %2, i64 %indvars.iv64.i
  %15 = load float, ptr %14, align 4, !tbaa !6
  %16 = tail call float @llvm.fmuladd.f32(float %11, float %13, float %15)
  store float %16, ptr %14, align 4, !tbaa !6
  %indvars.iv.next65.i = add nuw nsw i64 %indvars.iv64.i, 1
  %exitcond68.not.i = icmp eq i64 %indvars.iv.next65.i, %wide.trip.count67.i
  br i1 %exitcond68.not.i, label %_ZN2cv12cpu_baseline16accProd_general_IffEEvPKT_S4_PT0_PKhiii.exit, label %.lr.ph.i, !llvm.loop !61

17:                                               ; preds = %6
  %18 = icmp sgt i32 %4, 0
  br i1 %18, label %.lr.ph54.i, label %_ZN2cv12cpu_baseline16accProd_general_IffEEvPKT_S4_PT0_PKhiii.exit

.lr.ph54.i:                                       ; preds = %17
  %19 = icmp sgt i32 %5, 0
  %20 = sext i32 %5 to i64
  br i1 %19, label %.lr.ph54.split.us.preheader.i, label %_ZN2cv12cpu_baseline16accProd_general_IffEEvPKT_S4_PT0_PKhiii.exit

.lr.ph54.split.us.preheader.i:                    ; preds = %.lr.ph54.i
  %wide.trip.count62.i = zext nneg i32 %4 to i64
  %wide.trip.count.i = zext nneg i32 %5 to i64
  br label %.lr.ph54.split.us.i

.lr.ph54.split.us.i:                              ; preds = %..loopexit47_crit_edge.us.i, %.lr.ph54.split.us.preheader.i
  %indvars.iv59.i = phi i64 [ 0, %.lr.ph54.split.us.preheader.i ], [ %indvars.iv.next60.i, %..loopexit47_crit_edge.us.i ]
  %.04252.us.i = phi ptr [ %0, %.lr.ph54.split.us.preheader.i ], [ %30, %..loopexit47_crit_edge.us.i ]
  %.04351.us.i = phi ptr [ %1, %.lr.ph54.split.us.preheader.i ], [ %31, %..loopexit47_crit_edge.us.i ]
  %.04450.us.i = phi ptr [ %2, %.lr.ph54.split.us.preheader.i ], [ %32, %..loopexit47_crit_edge.us.i ]
  %21 = getelementptr inbounds nuw i8, ptr %3, i64 %indvars.iv59.i
  %22 = load i8, ptr %21, align 1, !tbaa !3
  %.not46.us.i = icmp eq i8 %22, 0
  br i1 %.not46.us.i, label %..loopexit47_crit_edge.us.i, label %.preheader.us.i

.preheader.us.i:                                  ; preds = %.lr.ph54.split.us.i, %.preheader.us.i
  %indvars.iv.i = phi i64 [ %indvars.iv.next.i, %.preheader.us.i ], [ 0, %.lr.ph54.split.us.i ]
  %23 = getelementptr inbounds nuw float, ptr %.04252.us.i, i64 %indvars.iv.i
  %24 = load float, ptr %23, align 4, !tbaa !6
  %25 = getelementptr inbounds nuw float, ptr %.04351.us.i, i64 %indvars.iv.i
  %26 = load float, ptr %25, align 4, !tbaa !6
  %27 = getelementptr inbounds nuw float, ptr %.04450.us.i, i64 %indvars.iv.i
  %28 = load float, ptr %27, align 4, !tbaa !6
  %29 = tail call float @llvm.fmuladd.f32(float %24, float %26, float %28)
  store float %29, ptr %27, align 4, !tbaa !6
  %indvars.iv.next.i = add nuw nsw i64 %indvars.iv.i, 1
  %exitcond.not.i = icmp eq i64 %indvars.iv.next.i, %wide.trip.count.i
  br i1 %exitcond.not.i, label %..loopexit47_crit_edge.us.i, label %.preheader.us.i, !llvm.loop !62

..loopexit47_crit_edge.us.i:                      ; preds = %.preheader.us.i, %.lr.ph54.split.us.i
  %indvars.iv.next60.i = add nuw nsw i64 %indvars.iv59.i, 1
  %30 = getelementptr inbounds nuw float, ptr %.04252.us.i, i64 %20
  %31 = getelementptr inbounds nuw float, ptr %.04351.us.i, i64 %20
  %32 = getelementptr inbounds nuw float, ptr %.04450.us.i, i64 %20
  %exitcond63.not.i = icmp eq i64 %indvars.iv.next60.i, %wide.trip.count62.i
  br i1 %exitcond63.not.i, label %_ZN2cv12cpu_baseline16accProd_general_IffEEvPKT_S4_PT0_PKhiii.exit, label %.lr.ph54.split.us.i, !llvm.loop !63

_ZN2cv12cpu_baseline16accProd_general_IffEEvPKT_S4_PT0_PKhiii.exit: ; preds = %..loopexit47_crit_edge.us.i, %.lr.ph.i, %7, %17, %.lr.ph54.i
  ret void
}